target datalayout = "e-m:e-p270:32:32-p271:32:32-p272:64:64-i64:64-i128:128-f80:128-n8:16:32:64-S128"
target triple = "x86_64-pc-linux-gnu"

%struct.obj_itr = type { ptr, ptr }

@imemo_type_ids = internal global [16 x i64] zeroinitializer, align 16
@.str.81 = private unnamed_addr constant [10 x i8] c"imemo_env\00", align 1
@.str.82 = private unnamed_addr constant [11 x i8] c"imemo_cref\00", align 1
@.str.83 = private unnamed_addr constant [11 x i8] c"imemo_svar\00", align 1
@.str.84 = private unnamed_addr constant [17 x i8] c"imemo_throw_data\00", align 1
@.str.85 = private unnamed_addr constant [12 x i8] c"imemo_ifunc\00", align 1
@.str.86 = private unnamed_addr constant [11 x i8] c"imemo_memo\00", align 1
@.str.87 = private unnamed_addr constant [11 x i8] c"imemo_ment\00", align 1
@.str.88 = private unnamed_addr constant [11 x i8] c"imemo_iseq\00", align 1
@.str.89 = private unnamed_addr constant [13 x i8] c"imemo_tmpbuf\00", align 1
@.str.90 = private unnamed_addr constant [10 x i8] c"imemo_ast\00", align 1
@.str.91 = private unnamed_addr constant [21 x i8] c"imemo_parser_strterm\00", align 1
@.str.92 = private unnamed_addr constant [15 x i8] c"imemo_callinfo\00", align 1
@.str.93 = private unnamed_addr constant [16 x i8] c"imemo_callcache\00", align 1
@.str.94 = private unnamed_addr constant [17 x i8] c"imemo_constcache\00", align 1

; Function Attrs: nounwind sspstrong uwtable
define internal void @each_object_with_flags(ptr noundef %0, ptr noundef %1) #0 {
  %3 = alloca ptr, align 8
  %4 = alloca ptr, align 8
  %5 = alloca %struct.obj_itr, align 8
  store ptr %0, ptr %3, align 8, !tbaa !46
  store ptr %1, ptr %4, align 8, !tbaa !46
  call void @llvm.lifetime.start.p0(i64 16, ptr %5) #15
  %6 = load ptr, ptr %3, align 8, !tbaa !46
  %7 = getelementptr inbounds nuw %struct.obj_itr, ptr %5, i32 0, i32 0
  store ptr %6, ptr %7, align 8, !tbaa !47
  %8 = load ptr, ptr %4, align 8, !tbaa !46
  %9 = getelementptr inbounds nuw %struct.obj_itr, ptr %5, i32 0, i32 1
  store ptr %8, ptr %9, align 8, !tbaa !49
  call void @rb_objspace_each_objects(ptr noundef @heap_iter, ptr noundef %5)
  call void @llvm.lifetime.end.p0(i64 16, ptr %5) #15
  ret void
}

; Function Attrs: inlinehint nounwind sspstrong willreturn memory(read) uwtable
define internal i64 @rb_intern_const(ptr noundef nonnull %0) #9 {
  %2 = alloca ptr, align 8
  %3 = alloca i64, align 8
  store ptr %0, ptr %2, align 8, !tbaa !39
  call void @llvm.lifetime.start.p0(i64 8, ptr %3) #15
  %4 = load ptr, ptr %2, align 8, !tbaa !39
  %5 = call i64 @strlen(ptr noundef %4) #17
  store i64 %5, ptr %3, align 8, !tbaa !6
  %6 = load ptr, ptr %2, align 8, !tbaa !39
  %7 = load i64, ptr %3, align 8, !tbaa !6
  %8 = call i64 @rb_intern2(ptr noundef %6, i64 noundef %7)
  call void @llvm.lifetime.end.p0(i64 8, ptr %3) #15
  ret i64 %8
}

; Function Attrs: nounwind sspstrong uwtable
define internal i64 @count_imemo_objects(i32 noundef %0, ptr noundef %1, i64 noundef %2) #0 {
  %4 = alloca i32, align 4
  %5 = alloca ptr, align 8
  %6 = alloca i64, align 8
  %7 = alloca i64, align 8
  store i32 %0, ptr %4, align 4, !tbaa !10
  store ptr %1, ptr %5, align 8, !tbaa !12
  store i64 %2, ptr %6, align 8, !tbaa !6
  call void @llvm.lifetime.start.p0(i64 8, ptr %7) #15
  %8 = load i32, ptr %4, align 4, !tbaa !10
  %9 = load ptr, ptr %5, align 8, !tbaa !12
  %10 = call i64 @setup_hash(i32 noundef %8, ptr noundef %9)
  store i64 %10, ptr %7, align 8, !tbaa !6
  %11 = load i64, ptr @imemo_type_ids, align 16, !tbaa !6
  %12 = icmp eq i64 %11, 0
  br i1 %12, label %13, label %28

13:                                               ; preds = %3
  %14 = call i64 @rb_intern_const(ptr noundef @.str.81) #17
  store i64 %14, ptr @imemo_type_ids, align 16, !tbaa !6
  %15 = call i64 @rb_intern_const(ptr noundef @.str.82) #17
  store i64 %15, ptr getelementptr inbounds ([16 x i64], ptr @imemo_type_ids, i64 0, i64 1), align 8, !tbaa !6
  %16 = call i64 @rb_intern_const(ptr noundef @.str.83) #17
  store i64 %16, ptr getelementptr inbounds ([16 x i64], ptr @imemo_type_ids, i64 0, i64 2), align 16, !tbaa !6
  %17 = call i64 @rb_intern_const(ptr noundef @.str.84) #17
  store i64 %17, ptr getelementptr inbounds ([16 x i64], ptr @imemo_type_ids, i64 0, i64 3), align 8, !tbaa !6
  %18 = call i64 @rb_intern_const(ptr noundef @.str.85) #17
  store i64 %18, ptr getelementptr inbounds ([16 x i64], ptr @imemo_type_ids, i64 0, i64 4), align 16, !tbaa !6
  %19 = call i64 @rb_intern_const(ptr noundef @.str.86) #17
  store i64 %19, ptr getelementptr inbounds ([16 x i64], ptr @imemo_type_ids, i64 0, i64 5), align 8, !tbaa !6
  %20 = call i64 @rb_intern_const(ptr noundef @.str.87) #17
  store i64 %20, ptr getelementptr inbounds ([16 x i64], ptr @imemo_type_ids, i64 0, i64 6), align 16, !tbaa !6
  %21 = call i64 @rb_intern_const(ptr noundef @.str.88) #17
  store i64 %21, ptr getelementptr inbounds ([16 x i64], ptr @imemo_type_ids, i64 0, i64 7), align 8, !tbaa !6
  %22 = call i64 @rb_intern_const(ptr noundef @.str.89) #17
  store i64 %22, ptr getelementptr inbounds ([16 x i64], ptr @imemo_type_ids, i64 0, i64 8), align 16, !tbaa !6
  %23 = call i64 @rb_intern_const(ptr noundef @.str.90) #17
  store i64 %23, ptr getelementptr inbounds ([16 x i64], ptr @imemo_type_ids, i64 0, i64 9), align 8, !tbaa !6
  %24 = call i64 @rb_intern_const(ptr noundef @.str.91) #17
  store i64 %24, ptr getelementptr inbounds ([16 x i64], ptr @imemo_type_ids, i64 0, i64 10), align 16, !tbaa !6
  %25 = call i64 @rb_intern_const(ptr noundef @.str.92) #17
  store i64 %25, ptr getelementptr inbounds ([16 x i64], ptr @imemo_type_ids, i64 0, i64 11), align 8, !tbaa !6
  %26 = call i64 @rb_intern_const(ptr noundef @.str.93) #17
  store i64 %26, ptr getelementptr inbounds ([16 x i64], ptr @imemo_type_ids, i64 0, i64 12), align 16, !tbaa !6
  %27 = call i64 @rb_intern_const(ptr noundef @.str.94) #17
  store i64 %27, ptr getelementptr inbounds ([16 x i64], ptr @imemo_type_ids, i64 0, i64 13), align 8, !tbaa !6
  br label %28

28:                                               ; preds = %13, %3
  %29 = load i64, ptr %7, align 8, !tbaa !6
  %30 = inttoptr i64 %29 to ptr
  call void @each_object_with_flags(ptr noundef @count_imemo_objects_i, ptr noundef %30)
  %31 = load i64, ptr %7, align 8, !tbaa !6
  call void @llvm.lifetime.end.p0(i64 8, ptr %7) #15
  ret i64 %31
}