; Function Attrs: nounwind sspstrong uwtable
define internal i64 @count_imemo_objects(i32 noundef %0, ptr noundef readonly captures(none) %1, i64 %2) #0 {
  %4 = alloca %struct.obj_itr, align 8
  %5 = tail call fastcc i64 @setup_hash(i32 noundef %0, ptr noundef %1)
  %6 = load i64, ptr @imemo_type_ids, align 16, !tbaa !6
  %7 = icmp eq i64 %6, 0
  br i1 %7, label %8, label %23

8:                                                ; preds = %3
  %9 = tail call i64 @rb_intern2(ptr noundef nonnull @.str.81, i64 noundef 9) #7
  store i64 %9, ptr @imemo_type_ids, align 16, !tbaa !6
  %10 = tail call i64 @rb_intern2(ptr noundef nonnull @.str.82, i64 noundef 10) #7
  store i64 %10, ptr getelementptr inbounds nuw (i8, ptr @imemo_type_ids, i64 8), align 8, !tbaa !6
  %11 = tail call i64 @rb_intern2(ptr noundef nonnull @.str.83, i64 noundef 10) #7
  store i64 %11, ptr getelementptr inbounds nuw (i8, ptr @imemo_type_ids, i64 16), align 16, !tbaa !6
  %12 = tail call i64 @rb_intern2(ptr noundef nonnull @.str.84, i64 noundef 16) #7
  store i64 %12, ptr getelementptr inbounds nuw (i8, ptr @imemo_type_ids, i64 24), align 8, !tbaa !6
  %13 = tail call i64 @rb_intern2(ptr noundef nonnull @.str.85, i64 noundef 11) #7
  store i64 %13, ptr getelementptr inbounds nuw (i8, ptr @imemo_type_ids, i64 32), align 16, !tbaa !6
  %14 = tail call i64 @rb_intern2(ptr noundef nonnull @.str.86, i64 noundef 10) #7
  store i64 %14, ptr getelementptr inbounds nuw (i8, ptr @imemo_type_ids, i64 40), align 8, !tbaa !6
  %15 = tail call i64 @rb_intern2(ptr noundef nonnull @.str.87, i64 noundef 10) #7
  store i64 %15, ptr getelementptr inbounds nuw (i8, ptr @imemo_type_ids, i64 48), align 16, !tbaa !6
  %16 = tail call i64 @rb_intern2(ptr noundef nonnull @.str.88, i64 noundef 10) #7
  store i64 %16, ptr getelementptr inbounds nuw (i8, ptr @imemo_type_ids, i64 56), align 8, !tbaa !6
  %17 = tail call i64 @rb_intern2(ptr noundef nonnull @.str.89, i64 noundef 12) #7
  store i64 %17, ptr getelementptr inbounds nuw (i8, ptr @imemo_type_ids, i64 64), align 16, !tbaa !6
  %18 = tail call i64 @rb_intern2(ptr noundef nonnull @.str.90, i64 noundef 9) #7
  store i64 %18, ptr getelementptr inbounds nuw (i8, ptr @imemo_type_ids, i64 72), align 8, !tbaa !6
  %19 = tail call i64 @rb_intern2(ptr noundef nonnull @.str.91, i64 noundef 20) #7
  store i64 %19, ptr getelementptr inbounds nuw (i8, ptr @imemo_type_ids, i64 80), align 16, !tbaa !6
  %20 = tail call i64 @rb_intern2(ptr noundef nonnull @.str.92, i64 noundef 14) #7
  store i64 %20, ptr getelementptr inbounds nuw (i8, ptr @imemo_type_ids, i64 88), align 8, !tbaa !6
  %21 = tail call i64 @rb_intern2(ptr noundef nonnull @.str.93, i64 noundef 15) #7
  store i64 %21, ptr getelementptr inbounds nuw (i8, ptr @imemo_type_ids, i64 96), align 16, !tbaa !6
  %22 = tail call i64 @rb_intern2(ptr noundef nonnull @.str.94, i64 noundef 16) #7
  store i64 %22, ptr getelementptr inbounds nuw (i8, ptr @imemo_type_ids, i64 104), align 8, !tbaa !6
  br label %23

23:                                               ; preds = %8, %3
  %24 = inttoptr i64 %5 to ptr
  call void @llvm.lifetime.start.p0(i64 16, ptr nonnull %4) #7
  store ptr @count_imemo_objects_i, ptr %4, align 8, !tbaa !10
  %25 = getelementptr inbounds nuw i8, ptr %4, i64 8
  store ptr %24, ptr %25, align 8, !tbaa !13
  call void @rb_objspace_each_objects(ptr noundef nonnull @heap_iter, ptr noundef nonnull %4) #7
  call void @llvm.lifetime.end.p0(i64 16, ptr nonnull %4) #7
  ret i64 %5
}